target datalayout = "e-m:e-p270:32:32-p271:32:32-p272:64:64-i64:64-i128:128-f80:128-n8:16:32:64-S128"
target triple = "x86_64-pc-linux-gnu"

%"class.std::__cxx11::basic_string" = type { %"struct.std::__cxx11::basic_string<char>::_Alloc_hider", i64, %union.anon }
%"struct.std::__cxx11::basic_string<char>::_Alloc_hider" = type { ptr }
%union.anon = type { i64, [8 x i8] }
%"struct.faiss::IOWriter" = type { ptr, %"class.std::__cxx11::basic_string" }
%"struct.faiss::FileIOWriter" = type <{ %"struct.faiss::IOWriter", ptr, i8, [7 x i8] }>

; Function Attrs: mustprogress uwtable
define void @_ZN5faiss18write_index_binaryEPKNS_11IndexBinaryEPKc(ptr noundef %0, ptr noundef %1) #4 personality ptr @__gxx_personality_v0 {
  %3 = alloca ptr, align 8
  %4 = alloca ptr, align 8
  %5 = alloca %"struct.faiss::FileIOWriter", align 8
  %6 = alloca ptr, align 8
  %7 = alloca i32, align 4
  store ptr %0, ptr %3, align 8
  store ptr %1, ptr %4, align 8
  %8 = load ptr, ptr %4, align 8
  call void @_ZN5faiss12FileIOWriterC1EPKc(ptr noundef nonnull align 8 dereferenceable(49) %5, ptr noundef %8)
  %9 = load ptr, ptr %3, align 8
  invoke void @_ZN5faiss18write_index_binaryEPKNS_11IndexBinaryEPNS_8IOWriterE(ptr noundef %9, ptr noundef %5)
          to label %10 unwind label %11

10:                                               ; preds = %2
  call void @_ZN5faiss12FileIOWriterD1Ev(ptr noundef nonnull align 8 dereferenceable(49) %5)
  ret void

11:                                               ; preds = %2
  %12 = landingpad { ptr, i32 }
          cleanup
  %13 = extractvalue { ptr, i32 } %12, 0
  store ptr %13, ptr %6, align 8
  %14 = extractvalue { ptr, i32 } %12, 1
  store i32 %14, ptr %7, align 4
  invoke void @_ZN5faiss12FileIOWriterD1Ev(ptr noundef nonnull align 8 dereferenceable(49) %5)
          to label %15 unwind label %21

15:                                               ; preds = %11
  br label %16

16:                                               ; preds = %15
  %17 = load ptr, ptr %6, align 8
  %18 = load i32, ptr %7, align 4
  %19 = insertvalue { ptr, i32 } poison, ptr %17, 0
  %20 = insertvalue { ptr, i32 } %19, i32 %18, 1
  resume { ptr, i32 } %20

21:                                               ; preds = %11
  %22 = landingpad { ptr, i32 }
          catch ptr null
  %23 = extractvalue { ptr, i32 } %22, 0
  call void @__clang_call_terminate(ptr %23) #17
  unreachable
}